; Function Attrs: mustprogress uwtable
define void @_ZN6icu_7522MetaZoneIDsEnumerationC2Ev(ptr noundef nonnull align 8 dereferenceable(144) %this) unnamed_addr #1 align 2 personality ptr @__gxx_personality_v0 {
entry:
  tail call void @_ZN6icu_7517StringEnumerationC2Ev(ptr noundef nonnull align 8 dereferenceable(116) %this)
  store ptr getelementptr inbounds ({ [13 x ptr] }, ptr @_ZTVN6icu_7522MetaZoneIDsEnumerationE, i64 0, i32 0, i64 2), ptr %this, align 8
  %fLen = getelementptr inbounds i8, ptr %this, i64 116
  store i32 0, ptr %fLen, align 4
  %fPos = getelementptr inbounds i8, ptr %this, i64 120
  store i32 0, ptr %fPos, align 8
  %fMetaZoneIDs = getelementptr inbounds i8, ptr %this, i64 128
  tail call void @llvm.memset.p0.i64(ptr noundef nonnull align 8 dereferenceable(16) %fMetaZoneIDs, i8 0, i64 16, i1 false)
  ret void
}